target datalayout = "e-m:e-p270:32:32-p271:32:32-p272:64:64-i64:64-i128:128-f80:128-n8:16:32:64-S128"
target triple = "x86_64-pc-linux-gnu"

%struct.PyCompilerFlags = type { i32, i32 }
%struct._object = type { %union.anon, ptr }
%union.anon = type { i64 }

@__const.run_stringflags.flags = private unnamed_addr constant %struct.PyCompilerFlags { i32 0, i32 14 }, align 4
@.str.3 = private unnamed_addr constant [9 x i8] c"z#iO|Oii\00", align 1
@_Py_NoneStruct = external global %struct._object, align 8

; Function Attrs: nounwind uwtable
define internal ptr @run_stringflags(ptr noundef %0, ptr noundef %1) #0 {
  %3 = alloca ptr, align 8
  %4 = alloca ptr, align 8
  %5 = alloca ptr, align 8
  %6 = alloca ptr, align 8
  %7 = alloca i64, align 8
  %8 = alloca i32, align 4
  %9 = alloca ptr, align 8
  %10 = alloca ptr, align 8
  %11 = alloca %struct.PyCompilerFlags, align 4
  %12 = alloca ptr, align 8
  %13 = alloca i32, align 4
  %14 = alloca i32, align 4
  %15 = alloca i32, align 4
  store ptr %0, ptr %4, align 8, !tbaa !3
  store ptr %1, ptr %5, align 8, !tbaa !3
  call void @llvm.lifetime.start.p0(i64 8, ptr %6) #7
  call void @llvm.lifetime.start.p0(i64 8, ptr %7) #7
  call void @llvm.lifetime.start.p0(i64 4, ptr %8) #7
  call void @llvm.lifetime.start.p0(i64 8, ptr %9) #7
  store ptr null, ptr %9, align 8, !tbaa !3
  call void @llvm.lifetime.start.p0(i64 8, ptr %10) #7
  store ptr null, ptr %10, align 8, !tbaa !3
  call void @llvm.lifetime.start.p0(i64 8, ptr %11) #7
  call void @llvm.memcpy.p0.p0.i64(ptr align 4 %11, ptr align 4 @__const.run_stringflags.flags, i64 8, i1 false)
  call void @llvm.lifetime.start.p0(i64 8, ptr %12) #7
  store ptr null, ptr %12, align 8, !tbaa !8
  call void @llvm.lifetime.start.p0(i64 4, ptr %13) #7
  store i32 0, ptr %13, align 4, !tbaa !9
  call void @llvm.lifetime.start.p0(i64 4, ptr %14) #7
  store i32 0, ptr %14, align 4, !tbaa !9
  %16 = load ptr, ptr %5, align 8, !tbaa !3
  %17 = call i32 (ptr, ptr, ...) @PyArg_ParseTuple(ptr noundef %16, ptr noundef @.str.3, ptr noundef %6, ptr noundef %7, ptr noundef %8, ptr noundef %9, ptr noundef %10, ptr noundef %13, ptr noundef %14)
  %18 = icmp ne i32 %17, 0
  br i1 %18, label %20, label %19

19:                                               ; preds = %2
  store ptr null, ptr %3, align 8
  store i32 1, ptr %15, align 4
  br label %52

20:                                               ; preds = %2
  br label %21

21:                                               ; preds = %20
  %22 = load ptr, ptr %9, align 8, !tbaa !3
  %23 = icmp eq ptr %22, @_Py_NoneStruct
  br i1 %23, label %24, label %25

24:                                               ; preds = %21
  store ptr null, ptr %9, align 8, !tbaa !3
  br label %25

25:                                               ; preds = %24, %21
  br label %26

26:                                               ; preds = %25
  br label %27

27:                                               ; preds = %26
  br label %28

28:                                               ; preds = %27
  %29 = load ptr, ptr %10, align 8, !tbaa !3
  %30 = icmp eq ptr %29, @_Py_NoneStruct
  br i1 %30, label %31, label %32

31:                                               ; preds = %28
  store ptr null, ptr %10, align 8, !tbaa !3
  br label %32

32:                                               ; preds = %31, %28
  br label %33

33:                                               ; preds = %32
  br label %34

34:                                               ; preds = %33
  %35 = load i32, ptr %13, align 4, !tbaa !9
  %36 = icmp ne i32 %35, 0
  br i1 %36, label %40, label %37

37:                                               ; preds = %34
  %38 = load i32, ptr %14, align 4, !tbaa !9
  %39 = icmp ne i32 %38, 0
  br i1 %39, label %40, label %45

40:                                               ; preds = %37, %34
  %41 = load i32, ptr %13, align 4, !tbaa !9
  %42 = getelementptr inbounds nuw %struct.PyCompilerFlags, ptr %11, i32 0, i32 0
  store i32 %41, ptr %42, align 4, !tbaa !11
  %43 = load i32, ptr %14, align 4, !tbaa !9
  %44 = getelementptr inbounds nuw %struct.PyCompilerFlags, ptr %11, i32 0, i32 1
  store i32 %43, ptr %44, align 4, !tbaa !13
  store ptr %11, ptr %12, align 8, !tbaa !8
  br label %45

45:                                               ; preds = %40, %37
  %46 = load ptr, ptr %6, align 8, !tbaa !14
  %47 = load i32, ptr %8, align 4, !tbaa !9
  %48 = load ptr, ptr %9, align 8, !tbaa !3
  %49 = load ptr, ptr %10, align 8, !tbaa !3
  %50 = load ptr, ptr %12, align 8, !tbaa !8
  %51 = call ptr @PyRun_StringFlags(ptr noundef %46, i32 noundef %47, ptr noundef %48, ptr noundef %49, ptr noundef %50)
  store ptr %51, ptr %3, align 8
  store i32 1, ptr %15, align 4
  br label %52

52:                                               ; preds = %45, %19
  call void @llvm.lifetime.end.p0(i64 4, ptr %14) #7
  call void @llvm.lifetime.end.p0(i64 4, ptr %13) #7
  call void @llvm.lifetime.end.p0(i64 8, ptr %12) #7
  call void @llvm.lifetime.end.p0(i64 8, ptr %11) #7
  call void @llvm.lifetime.end.p0(i64 8, ptr %10) #7
  call void @llvm.lifetime.end.p0(i64 8, ptr %9) #7
  call void @llvm.lifetime.end.p0(i64 4, ptr %8) #7
  call void @llvm.lifetime.end.p0(i64 8, ptr %7) #7
  call void @llvm.lifetime.end.p0(i64 8, ptr %6) #7
  %53 = load ptr, ptr %3, align 8
  ret ptr %53
}