; Function Attrs: nounwind uwtable
define internal ptr @run_stringflags(ptr readnone captures(none) %0, ptr noundef %1) #0 {
  %3 = alloca ptr, align 8
  %4 = alloca i64, align 8
  %5 = alloca i32, align 4
  %6 = alloca ptr, align 8
  %7 = alloca ptr, align 8
  %8 = alloca %struct.PyCompilerFlags, align 8
  %9 = alloca i32, align 4
  %10 = alloca i32, align 4
  call void @llvm.lifetime.start.p0(i64 8, ptr nonnull %3) #4
  call void @llvm.lifetime.start.p0(i64 8, ptr nonnull %4) #4
  call void @llvm.lifetime.start.p0(i64 4, ptr nonnull %5) #4
  call void @llvm.lifetime.start.p0(i64 8, ptr nonnull %6) #4
  store ptr null, ptr %6, align 8, !tbaa !3
  call void @llvm.lifetime.start.p0(i64 8, ptr nonnull %7) #4
  store ptr null, ptr %7, align 8, !tbaa !3
  call void @llvm.lifetime.start.p0(i64 8, ptr nonnull %8) #4
  store i64 60129542144, ptr %8, align 8
  call void @llvm.lifetime.start.p0(i64 4, ptr nonnull %9) #4
  store i32 0, ptr %9, align 4, !tbaa !8
  call void @llvm.lifetime.start.p0(i64 4, ptr nonnull %10) #4
  store i32 0, ptr %10, align 4, !tbaa !8
  %11 = call i32 (ptr, ptr, ...) @PyArg_ParseTuple(ptr noundef %1, ptr noundef nonnull @.str.3, ptr noundef nonnull %3, ptr noundef nonnull %4, ptr noundef nonnull %5, ptr noundef nonnull %6, ptr noundef nonnull %7, ptr noundef nonnull %9, ptr noundef nonnull %10) #4
  %.not = icmp eq i32 %11, 0
  br i1 %.not, label %33, label %12

12:                                               ; preds = %2
  %13 = load ptr, ptr %6, align 8, !tbaa !3
  %14 = icmp eq ptr %13, @_Py_NoneStruct
  br i1 %14, label %15, label %16

15:                                               ; preds = %12
  store ptr null, ptr %6, align 8, !tbaa !3
  br label %16

16:                                               ; preds = %12, %15
  %17 = phi ptr [ %13, %12 ], [ null, %15 ]
  %18 = load ptr, ptr %7, align 8, !tbaa !3
  %19 = icmp eq ptr %18, @_Py_NoneStruct
  br i1 %19, label %20, label %21

20:                                               ; preds = %16
  store ptr null, ptr %7, align 8, !tbaa !3
  br label %21

21:                                               ; preds = %20, %16
  %22 = phi ptr [ null, %20 ], [ %18, %16 ]
  %23 = load i32, ptr %9, align 4, !tbaa !8
  %24 = icmp ne i32 %23, 0
  %25 = load i32, ptr %10, align 4
  %26 = icmp ne i32 %25, 0
  %or.cond = select i1 %24, i1 true, i1 %26
  br i1 %or.cond, label %27, label %29

27:                                               ; preds = %21
  store i32 %23, ptr %8, align 8, !tbaa !10
  %28 = getelementptr inbounds nuw i8, ptr %8, i64 4
  store i32 %25, ptr %28, align 4, !tbaa !12
  br label %29

29:                                               ; preds = %21, %27
  %.0 = phi ptr [ %8, %27 ], [ null, %21 ]
  %30 = load ptr, ptr %3, align 8, !tbaa !13
  %31 = load i32, ptr %5, align 4, !tbaa !8
  %32 = call ptr @PyRun_StringFlags(ptr noundef %30, i32 noundef %31, ptr noundef %17, ptr noundef %22, ptr noundef %.0) #4
  br label %33

33:                                               ; preds = %2, %29
  %.04 = phi ptr [ %32, %29 ], [ null, %2 ]
  call void @llvm.lifetime.end.p0(i64 4, ptr nonnull %10) #4
  call void @llvm.lifetime.end.p0(i64 4, ptr nonnull %9) #4
  call void @llvm.lifetime.end.p0(i64 8, ptr nonnull %8) #4
  call void @llvm.lifetime.end.p0(i64 8, ptr nonnull %7) #4
  call void @llvm.lifetime.end.p0(i64 8, ptr nonnull %6) #4
  call void @llvm.lifetime.end.p0(i64 4, ptr nonnull %5) #4
  call void @llvm.lifetime.end.p0(i64 8, ptr nonnull %4) #4
  call void @llvm.lifetime.end.p0(i64 8, ptr nonnull %3) #4
  ret ptr %.04
}